; Function Attrs: mustprogress nofree norecurse nosync nounwind willreturn memory(read, argmem: readwrite, inaccessiblemem: none) uwtable
define dso_local void @_ZNK4llvm6object14WasmObjectFile14getSymbolFlagsENS0_11DataRefImplE(ptr dead_on_unwind noalias nocapture writable sret(%"class.llvm::Expected.186") align 8 %0, ptr nocapture noundef nonnull readonly align 8 dereferenceable(684) %1, i64 %2) unnamed_addr #9 align 2 {
  %.sroa.1.0.extract.shift = lshr i64 %2, 32
  %4 = getelementptr inbounds nuw i8, ptr %1, i64 536
  %5 = load ptr, ptr %4, align 8
  %6 = getelementptr inbounds %"class.llvm::object::WasmSymbol", ptr %5, i64 %.sroa.1.0.extract.shift
  %7 = getelementptr inbounds nuw i8, ptr %6, i64 20
  %8 = load i32, ptr %7, align 4
  %9 = and i32 %8, 3
  %switch.selectcmp = icmp eq i32 %9, 2
  %switch.select = select i1 %switch.selectcmp, i32 0, i32 2
  %switch.selectcmp13 = icmp eq i32 %9, 1
  %switch.select14 = select i1 %switch.selectcmp13, i32 6, i32 %switch.select
  %10 = and i32 %8, 12
  %11 = icmp eq i32 %10, 4
  %12 = or disjoint i32 %switch.select14, 512
  %spec.select = select i1 %11, i32 %12, i32 %switch.select14
  %13 = lshr i32 %8, 4
  %14 = and i32 %13, 1
  %.3 = or disjoint i32 %spec.select, %14
  %15 = getelementptr inbounds nuw i8, ptr %6, i64 16
  %16 = load i8, ptr %15, align 8
  %17 = icmp eq i8 %16, 0
  %18 = or disjoint i32 %.3, 2048
  %.4 = select i1 %17, i32 %18, i32 %.3
  %19 = getelementptr inbounds nuw i8, ptr %0, i64 8
  %20 = load i8, ptr %19, align 8
  %21 = and i8 %20, -2
  store i8 %21, ptr %19, align 8
  store i32 %.4, ptr %0, align 8
  ret void
}